Certificate:
    Data:
        Version: 3 (0x2)
        Serial Number: 1 (0x1)
        Signature Algorithm: sha256WithRSAEncryption
        Issuer: C=US, CN=Test Root CA
        Validity
            Not Before: Oct 28 23:43:17 2024 GMT
            Not After : Oct 28 23:43:17 2026 GMT
        Subject: C=US, CN=Test Intermediate CA
        Subject Public Key Info:
            Public Key Algorithm: rsaEncryption
                Public-Key: (2048 bit)
                Modulus:
                    00:bf:ac:e1:f6:bf:ed:1b:3c:b1:ad:69:6a:a0:eb:
                    f9:b9:22:f5:aa:68:c6:57:53:85:79:7e:cc:c9:24:
                    44:20:89:57:dd:5d:24:a1:6e:6d:88:39:06:d1:fb:
                    16:19:71:4a:7a:00:f4:03:de:97:18:c9:c6:34:7d:
                    e7:75:b7:fb:25:0a:ee:eb:b1:02:00:a8:bd:10:e2:
                    f9:68:8a:d9:90:fa:8b:2f:68:e2:68:26:94:69:71:
                    f4:1f:af:01:17:8b:02:7a:23:a4:45:69:88:f1:c3:
                    6e:13:84:01:68:91:3c:bd:89:d1:76:5e:88:5e:7b:
                    bd:6b:ac:fa:e3:a6:c3:5b:fe:9d:6e:33:de:8a:b2:
                    3f:49:19:8f:68:8c:4f:15:35:2e:7d:17:cd:d0:60:
                    b1:21:24:50:b7:03:53:51:bc:dc:77:03:ed:99:7e:
                    57:52:7f:ee:79:4b:95:22:2a:46:2d:e1:bf:09:d3:
                    0d:95:2f:07:8b:43:ab:e4:04:b1:74:77:6f:57:55:
                    ca:6c:30:0d:79:02:16:39:bd:06:7a:00:b2:58:e9:
                    17:dc:4c:dc:e8:42:87:d0:8a:3b:41:2e:1e:09:ff:
                    e9:d6:5f:3b:4d:8c:56:58:a1:36:1a:4c:34:3c:07:
                    15:39:dd:90:e9:6e:e2:61:26:73:51:e6:15:63:d1:
                    11:b5
                Exponent: 65537 (0x10001)
        X509v3 extensions:
            X509v3 Basic Constraints: critical
                CA:TRUE
            X509v3 Key Usage: critical
                Certificate Sign
            X509v3 Subject Key Identifier: 
                18:4E:78:7E:D5:B6:53:5C:AA:09:06:78:A7:6D:10:97:91:4A:64:FB
            X509v3 Authority Key Identifier: 
                D0:11:0B:6B:86:87:55:2F:6A:F0:12:14:00:8D:58:3E:67:24:09:1B
    Signature Algorithm: sha256WithRSAEncryption
    Signature Value:
        1b:91:19:4d:98:8a:6b:b2:2f:35:8a:eb:17:f2:66:6e:18:a1:
        35:d7:f6:6e:20:1c:63:c0:09:05:7a:0d:f0:19:5b:df:9e:0a:
        d8:3d:91:f8:23:70:1c:7e:40:36:03:af:28:f7:e7:71:b7:95:
        51:39:f1:c5:79:bd:01:fc:99:b2:82:54:78:21:94:df:62:98:
        3f:6b:d4:04:dd:d9:ac:70:ec:1b:db:a4:47:11:bd:28:cd:2d:
        88:cc:ae:ad:d2:84:45:86:d5:5f:28:9d:8c:b1:39:8f:1b:4b:
        a3:0d:c7:e5:fc:42:f7:9c:e1:be:4c:06:5b:4d:c3:73:c5:99:
        24:89:e0:e7:63:1f:b7:cc:83:92:00:98:aa:97:17:12:71:8a:
        e0:1a:ad:4b:8d:d6:d2:c4:01:28:37:bf:a5:99:a8:9d:86:27:
        29:77:a4:f3:64:92:3a:b5:80:78:39:2a:a0:dc:6e:16:7e:c9:
        e4:83:e3:fc:55:bf:ac:3f:59:fc:a8:8b:9e:69:09:04:4a:0d:
        21:1f:ee:60:ab:ff:8f:49:75:d9:f4:ad:4e:99:34:63:47:78:
        25:79:fb:ef:7b:2c:bf:3b:24:5b:49:8a:85:d4:fa:f2:a3:c1:
        50:84:aa:75:85:c6:81:33:5e:02:70:d5:f8:c6:15:57:a4:75:
        4f:48:91:0d
-----BEGIN CERTIFICATE-----
MIIDLjCCAhagAwIBAgIBATANBgkqhkiG9w0BAQsFADAkMQswCQYDVQQGEwJVUzEV
MBMGA1UEAwwMVGVzdCBSb290IENBMB4XDTI0MTAyODIzNDMxN1oXDTI2MTAyODIz
NDMxN1owLDELMAkGA1UEBhMCVVMxHTAbBgNVBAMMFFRlc3QgSW50ZXJtZWRpYXRl
IENBMIIBIjANBgkqhkiG9w0BAQEFAAOCAQ8AMIIBCgKCAQEAv6zh9r/tGzyxrWlq
oOv5uSL1qmjGV1OFeX7MySREIIlX3V0koW5tiDkG0fsWGXFKegD0A96XGMnGNH3n
dbf7JQru67ECAKi9EOL5aIrZkPqLL2jiaCaUaXH0H68BF4sCeiOkRWmI8cNuE4QB
aJE8vYnRdl6IXnu9a6z646bDW/6dbjPeirI/SRmPaIxPFTUufRfN0GCxISRQtwNT
UbzcdwPtmX5XUn/ueUuVIipGLeG/CdMNlS8Hi0Or5ASxdHdvV1XKbDANeQIWOb0G
egCyWOkX3Ezc6EKH0Io7QS4eCf/p1l87TYxWWKE2Gkw0PAcVOd2Q6W7iYSZzUeYV
Y9ERtQIDAQABo2MwYTAPBgNVHRMBAf8EBTADAQH/MA4GA1UdDwEB/wQEAwICBDAd
BgNVHQ4EFgQUGE54ftW2U1yqCQZ4p20Ql5FKZPswHwYDVR0jBBgwFoAU0BELa4aH
VS9q8BIUAI1YPmckCRswDQYJKoZIhvcNAQELBQADggEBABuRGU2YimuyLzWK6xfy
Zm4YoTXX9m4gHGPACQV6DfAZW9+eCtg9kfgjcBx+QDYDryj353G3lVE58cV5vQH8
mbKCVHghlN9imD9r1ATd2axw7BvbpEcRvSjNLYjMrq3ShEWG1V8onYyxOY8bS6MN
x+X8Qvec4b5MBltNw3PFmSSJ4OdjH7fMg5IAmKqXFxJxiuAarUuN1tLEASg3v6WZ
qJ2GJyl3pPNkkjq1gHg5KqDcbhZ+yeSD4/xVv6w/Wfyoi55pCQRKDSEf7mCr/49J
ddn0rU6ZNGNHeCV5++97LL87JFtJioXU+vKjwVCEqnWFxoEzXgJw1fjGFVekdU9I
kQ0=
-----END CERTIFICATE-----
