Certificate:
    Data:
        Version: 3 (0x2)
        Serial Number: 0 (0x0)
        Signature Algorithm: sha256WithRSAEncryption
        Issuer: C=US, CN=Test Intermediate CA
        Validity
            Not Before: Oct 28 23:43:33 2024 GMT
            Not After : Oct 28 23:43:33 2025 GMT
        Subject: C=US, CN=Test Leaf
        Subject Public Key Info:
            Public Key Algorithm: rsaEncryption
                Public-Key: (2048 bit)
                Modulus:
                    00:e4:cf:6b:f6:08:81:a8:50:13:a3:40:60:1b:71:
                    f6:35:17:f6:18:f4:2f:92:be:c6:10:47:c1:dd:f1:
                    72:69:96:f4:cb:d0:c6:34:25:e0:0e:59:94:80:92:
                    3a:10:16:11:78:4a:9b:c7:90:a1:4d:b5:f0:86:b6:
                    17:0a:6a:04:a7:7b:10:8e:a7:16:bb:ac:2d:04:24:
                    5a:2c:59:0f:75:34:a3:9f:45:2f:c0:e2:b4:26:46:
                    ad:1d:9c:c6:c0:55:d7:b1:c0:52:14:ec:f1:e5:6d:
                    49:37:5b:38:4c:e1:f3:e0:5e:19:74:33:eb:39:f4:
                    0c:34:96:b3:aa:12:3c:e1:f4:c7:2b:bd:a9:4b:80:
                    75:66:8f:c0:28:f3:bf:4f:b9:c7:31:ba:f6:28:21:
                    c5:df:e3:d5:a6:bb:27:0e:ff:8a:8e:03:80:48:0a:
                    b2:9a:3c:63:64:62:03:ca:94:c8:14:b7:c4:99:da:
                    da:07:1c:8f:60:e2:69:d3:97:de:2d:26:1c:95:5c:
                    ca:5b:c3:d0:ba:3b:0c:0e:83:89:ee:e2:0f:b0:c7:
                    b5:1f:b8:e6:44:aa:99:28:1c:5f:8f:d6:4b:1a:db:
                    1f:ea:b9:cc:e7:b0:2d:fe:46:e5:08:03:0b:7c:03:
                    95:5a:f1:61:d0:54:dd:8a:92:47:f2:8d:e4:7c:18:
                    fa:63
                Exponent: 65537 (0x10001)
        X509v3 extensions:
            X509v3 Subject Key Identifier: 
                DB:C4:83:B3:ED:B0:70:75:D6:69:C1:55:37:9E:60:9B:2B:6F:80:7E
            X509v3 Authority Key Identifier: 
                18:4E:78:7E:D5:B6:53:5C:AA:09:06:78:A7:6D:10:97:91:4A:64:FB
    Signature Algorithm: sha256WithRSAEncryption
    Signature Value:
        ba:88:00:ce:20:0c:63:5b:d2:8b:32:a9:46:3e:a8:53:07:21:
        3a:96:86:94:14:38:2c:56:a8:9a:e6:f0:e9:36:96:2d:82:56:
        76:a9:c8:ea:4e:65:a8:29:db:2c:6f:d9:03:99:46:f3:d1:0c:
        4d:bf:51:e0:75:da:5f:df:73:48:04:c2:77:94:2b:13:88:f4:
        21:9d:15:44:d4:e6:79:e9:44:b2:64:a9:bd:0f:fd:b4:06:0c:
        6c:31:fc:e4:2f:f3:66:8d:3d:20:79:4a:78:b1:a0:69:a2:17:
        a4:31:05:0c:99:13:6a:fd:33:f6:0b:27:56:32:ab:57:05:70:
        3f:81:c9:7b:01:d4:31:83:27:80:79:8d:a2:ef:bd:0e:65:0f:
        b0:4d:ea:8c:55:66:13:e6:01:6e:96:4e:42:b8:01:9e:6f:59:
        e7:b1:b2:fb:10:83:e3:a4:32:3c:16:46:bc:4f:68:a0:65:ae:
        1f:82:05:ca:a2:87:88:21:9d:79:25:14:d6:a1:96:de:54:73:
        b8:7e:f7:84:ec:d4:43:f4:f9:15:91:0f:77:6f:6a:a5:6c:52:
        31:18:91:00:cf:c6:46:a4:46:31:13:2c:57:d5:e1:3f:1f:ed:
        dd:34:55:4b:1e:be:2e:d9:7d:55:5a:d9:4e:54:54:5c:8c:6d:
        64:7b:4d:ff
-----BEGIN CERTIFICATE-----
MIIDCjCCAfKgAwIBAgIBADANBgkqhkiG9w0BAQsFADAsMQswCQYDVQQGEwJVUzEd
MBsGA1UEAwwUVGVzdCBJbnRlcm1lZGlhdGUgQ0EwHhcNMjQxMDI4MjM0MzMzWhcN
MjUxMDI4MjM0MzMzWjAhMQswCQYDVQQGEwJVUzESMBAGA1UEAwwJVGVzdCBMZWFm
MIIBIjANBgkqhkiG9w0BAQEFAAOCAQ8AMIIBCgKCAQEA5M9r9giBqFATo0BgG3H2
NRf2GPQvkr7GEEfB3fFyaZb0y9DGNCXgDlmUgJI6EBYReEqbx5ChTbXwhrYXCmoE
p3sQjqcWu6wtBCRaLFkPdTSjn0UvwOK0JkatHZzGwFXXscBSFOzx5W1JN1s4TOHz
4F4ZdDPrOfQMNJazqhI84fTHK72pS4B1Zo/AKPO/T7nHMbr2KCHF3+PVprsnDv+K
jgOASAqymjxjZGIDypTIFLfEmdraBxyPYOJp05feLSYclVzKW8PQujsMDoOJ7uIP
sMe1H7jmRKqZKBxfj9ZLGtsf6rnM57At/kblCAMLfAOVWvFh0FTdipJH8o3kfBj6
YwIDAQABo0IwQDAdBgNVHQ4EFgQU28SDs+2wcHXWacFVN55gmytvgH4wHwYDVR0j
BBgwFoAUGE54ftW2U1yqCQZ4p20Ql5FKZPswDQYJKoZIhvcNAQELBQADggEBALqI
AM4gDGNb0osyqUY+qFMHITqWhpQUOCxWqJrm8Ok2li2CVnapyOpOZagp2yxv2QOZ
RvPRDE2/UeB12l/fc0gEwneUKxOI9CGdFUTU5nnpRLJkqb0P/bQGDGwx/OQv82aN
PSB5SnixoGmiF6QxBQyZE2r9M/YLJ1Yyq1cFcD+ByXsB1DGDJ4B5jaLvvQ5lD7BN
6oxVZhPmAW6WTkK4AZ5vWeexsvsQg+OkMjwWRrxPaKBlrh+CBcqih4ghnXklFNah
lt5Uc7h+94Ts1EP0+RWRD3dvaqVsUjEYkQDPxkakRjETLFfV4T8f7d00VUsevi7Z
fVVa2U5UVFyMbWR7Tf8=
-----END CERTIFICATE-----
