Certificate:
    Data:
        Version: 3 (0x2)
        Serial Number: 0 (0x0)
        Signature Algorithm: sha256WithRSAEncryption
        Issuer: C=US, CN=Test Root CA
        Validity
            Not Before: Oct 28 23:42:12 2024 GMT
            Not After : Oct 28 23:42:12 2027 GMT
        Subject: C=US, CN=Test Root CA
        Subject Public Key Info:
            Public Key Algorithm: rsaEncryption
                Public-Key: (2048 bit)
                Modulus:
                    00:f5:b7:c2:ac:cd:05:31:12:be:ee:24:48:ff:4f:
                    62:f7:9a:10:a6:2e:22:48:b7:e7:04:65:9f:31:09:
                    42:45:17:73:0a:9c:c8:a3:90:c4:20:90:8a:94:5c:
                    45:4d:a6:90:35:c4:df:c2:e1:f0:eb:9d:1f:a6:8b:
                    03:49:4a:98:e0:db:90:97:ce:48:73:d6:e7:b9:82:
                    c5:60:85:96:12:f5:4d:2a:eb:ca:0c:cd:37:e2:fb:
                    7d:7b:eb:7e:b1:37:83:ce:21:32:b1:f2:a9:33:b5:
                    df:cb:ad:76:9f:17:fa:5f:35:d3:9f:9a:7c:c2:26:
                    75:a3:07:97:e6:19:03:6b:94:56:5b:ec:7a:e7:b9:
                    87:61:93:d0:4e:0c:79:b5:4a:9a:10:c9:95:ed:4e:
                    a9:da:5f:23:d8:73:2c:ca:f0:90:4b:06:5f:df:79:
                    20:68:ec:5d:f2:65:5c:29:df:43:60:51:80:03:51:
                    7b:47:a2:01:e1:55:03:ae:72:c2:ef:a6:be:1f:9a:
                    b4:ee:cf:47:65:07:aa:a3:22:2f:d3:b7:55:1b:45:
                    dc:ac:65:96:89:9e:6f:c9:75:0e:3a:17:25:d0:78:
                    78:75:69:f7:04:78:b7:a0:0b:09:6b:9b:9a:d4:2d:
                    44:69:3f:75:07:ff:85:74:5b:76:6d:c4:5a:71:f5:
                    ce:2d
                Exponent: 65537 (0x10001)
        X509v3 extensions:
            X509v3 Basic Constraints: critical
                CA:TRUE
            X509v3 Key Usage: critical
                Certificate Sign
            X509v3 Subject Key Identifier: 
                D0:11:0B:6B:86:87:55:2F:6A:F0:12:14:00:8D:58:3E:67:24:09:1B
    Signature Algorithm: sha256WithRSAEncryption
    Signature Value:
        0b:b2:de:61:cb:40:9b:31:8c:31:77:60:ae:b5:56:75:e5:ee:
        28:73:9b:4b:03:a3:ad:c2:c0:40:6f:74:3b:de:83:19:8f:ec:
        c9:50:9e:ab:5c:89:5c:9a:be:56:78:f0:3e:03:54:ba:3b:2b:
        ce:35:4d:2c:09:cd:09:11:f0:ec:db:1e:d0:e0:5b:89:e3:3e:
        7f:d7:df:05:74:06:50:05:4f:c9:fc:29:93:a0:d9:d3:35:7b:
        8b:28:54:55:d7:f7:b2:03:36:ab:f8:08:d6:2c:97:e2:14:d1:
        ad:9b:e8:ea:38:e1:4b:7b:c1:6b:cd:d7:6e:6e:e8:58:24:80:
        28:0c:68:8e:ce:bc:55:c0:b3:95:67:f5:fa:32:f1:6f:b2:e6:
        46:a9:e6:20:9d:c0:2d:37:28:1a:ff:58:8f:48:48:5a:7c:7f:
        08:c2:95:d6:6f:24:43:1c:c9:91:91:a1:e8:dd:8c:f4:60:0e:
        33:7a:2e:67:d1:dc:dc:e1:c8:27:e0:5f:99:bd:77:68:92:9d:
        0e:8f:a1:17:a2:8a:d2:b8:65:92:4e:2f:75:a8:29:59:ce:5d:
        0a:65:25:08:33:3f:f2:fe:5e:c4:6c:6b:e4:15:f0:11:2d:cb:
        67:f0:e8:82:53:df:fa:2a:4c:78:67:48:ee:89:8c:6a:4f:f5:
        f7:32:9b:e6
-----BEGIN CERTIFICATE-----
MIIDBTCCAe2gAwIBAgIBADANBgkqhkiG9w0BAQsFADAkMQswCQYDVQQGEwJVUzEV
MBMGA1UEAwwMVGVzdCBSb290IENBMB4XDTI0MTAyODIzNDIxMloXDTI3MTAyODIz
NDIxMlowJDELMAkGA1UEBhMCVVMxFTATBgNVBAMMDFRlc3QgUm9vdCBDQTCCASIw
DQYJKoZIhvcNAQEBBQADggEPADCCAQoCggEBAPW3wqzNBTESvu4kSP9PYveaEKYu
Iki35wRlnzEJQkUXcwqcyKOQxCCQipRcRU2mkDXE38Lh8OudH6aLA0lKmODbkJfO
SHPW57mCxWCFlhL1TSrrygzNN+L7fXvrfrE3g84hMrHyqTO138utdp8X+l8105+a
fMImdaMHl+YZA2uUVlvseue5h2GT0E4MebVKmhDJle1OqdpfI9hzLMrwkEsGX995
IGjsXfJlXCnfQ2BRgANRe0eiAeFVA65ywu+mvh+atO7PR2UHqqMiL9O3VRtF3Kxl
lomeb8l1DjoXJdB4eHVp9wR4t6ALCWubmtQtRGk/dQf/hXRbdm3EWnH1zi0CAwEA
AaNCMEAwDwYDVR0TAQH/BAUwAwEB/zAOBgNVHQ8BAf8EBAMCAgQwHQYDVR0OBBYE
FNARC2uGh1UvavASFACNWD5nJAkbMA0GCSqGSIb3DQEBCwUAA4IBAQALst5hy0Cb
MYwxd2CutVZ15e4oc5tLA6OtwsBAb3Q73oMZj+zJUJ6rXIlcmr5WePA+A1S6OyvO
NU0sCc0JEfDs2x7Q4FuJ4z5/198FdAZQBU/J/CmToNnTNXuLKFRV1/eyAzar+AjW
LJfiFNGtm+jqOOFLe8FrzddubuhYJIAoDGiOzrxVwLOVZ/X6MvFvsuZGqeYgncAt
Nyga/1iPSEhafH8IwpXWbyRDHMmRkaHo3Yz0YA4zei5n0dzc4cgn4F+ZvXdokp0O
j6EXoorSuGWSTi91qClZzl0KZSUIMz/y/l7EbGvkFfARLctn8OiCU9/6Kkx4Z0ju
iYxqT/X3Mpvm
-----END CERTIFICATE-----
